target datalayout = "e-m:e-p270:32:32-p271:32:32-p272:64:64-i64:64-i128:128-f80:128-n8:16:32:64-S128"
target triple = "x86_64-pc-linux-gnu"

%struct.type_and_structure_st = type { ptr, ptr }

@.str.2 = private unnamed_addr constant [33 x i8] c"../openssl/crypto/asn1/i2d_evp.c\00", align 1
@__func__.i2d_provided = private unnamed_addr constant [13 x i8] c"i2d_provided\00", align 1

; Function Attrs: nounwind uwtable
define internal i32 @i2d_provided(ptr noundef %0, i32 noundef %1, ptr noundef %2, ptr noundef %3) #0 {
  %5 = alloca i32, align 4
  %6 = alloca ptr, align 8
  %7 = alloca i32, align 4
  %8 = alloca ptr, align 8
  %9 = alloca ptr, align 8
  %10 = alloca i32, align 4
  %11 = alloca i64, align 8
  %12 = alloca i32, align 4
  %13 = alloca ptr, align 8
  %14 = alloca i32, align 4
  store ptr %0, ptr %6, align 8, !tbaa !3
  store i32 %1, ptr %7, align 4, !tbaa !28
  store ptr %2, ptr %8, align 8, !tbaa !29
  store ptr %3, ptr %9, align 8, !tbaa !8
  call void @llvm.lifetime.start.p0(i64 4, ptr %10) #3
  store i32 -1, ptr %10, align 4, !tbaa !28
  br label %15

15:                                               ; preds = %68, %4
  %16 = load i32, ptr %10, align 4, !tbaa !28
  %17 = icmp eq i32 %16, -1
  br i1 %17, label %18, label %23

18:                                               ; preds = %15
  %19 = load ptr, ptr %8, align 8, !tbaa !29
  %20 = getelementptr inbounds nuw %struct.type_and_structure_st, ptr %19, i32 0, i32 0
  %21 = load ptr, ptr %20, align 8, !tbaa !31
  %22 = icmp ne ptr %21, null
  br label %23

23:                                               ; preds = %18, %15
  %24 = phi i1 [ false, %15 ], [ %22, %18 ]
  br i1 %24, label %25, label %71

25:                                               ; preds = %23
  call void @llvm.lifetime.start.p0(i64 8, ptr %11) #3
  store i64 2147483647, ptr %11, align 8, !tbaa !33
  call void @llvm.lifetime.start.p0(i64 4, ptr %12) #3
  %26 = load ptr, ptr %9, align 8, !tbaa !8
  %27 = icmp eq ptr %26, null
  br i1 %27, label %32, label %28

28:                                               ; preds = %25
  %29 = load ptr, ptr %9, align 8, !tbaa !8
  %30 = load ptr, ptr %29, align 8, !tbaa !34
  %31 = icmp eq ptr %30, null
  br label %32

32:                                               ; preds = %28, %25
  %33 = phi i1 [ true, %25 ], [ %31, %28 ]
  %34 = zext i1 %33 to i32
  store i32 %34, ptr %12, align 4, !tbaa !28
  call void @llvm.lifetime.start.p0(i64 8, ptr %13) #3
  %35 = load ptr, ptr %6, align 8, !tbaa !3
  %36 = load i32, ptr %7, align 4, !tbaa !28
  %37 = load ptr, ptr %8, align 8, !tbaa !29
  %38 = getelementptr inbounds nuw %struct.type_and_structure_st, ptr %37, i32 0, i32 0
  %39 = load ptr, ptr %38, align 8, !tbaa !31
  %40 = load ptr, ptr %8, align 8, !tbaa !29
  %41 = getelementptr inbounds nuw %struct.type_and_structure_st, ptr %40, i32 0, i32 1
  %42 = load ptr, ptr %41, align 8, !tbaa !35
  %43 = call ptr @OSSL_ENCODER_CTX_new_for_pkey(ptr noundef %35, i32 noundef %36, ptr noundef %39, ptr noundef %42, ptr noundef null)
  store ptr %43, ptr %13, align 8, !tbaa !36
  %44 = load ptr, ptr %13, align 8, !tbaa !36
  %45 = icmp eq ptr %44, null
  br i1 %45, label %46, label %47

46:                                               ; preds = %32
  store i32 -1, ptr %5, align 4
  store i32 1, ptr %14, align 4
  br label %65

47:                                               ; preds = %32
  %48 = load ptr, ptr %13, align 8, !tbaa !36
  %49 = load ptr, ptr %9, align 8, !tbaa !8
  %50 = call i32 @OSSL_ENCODER_to_data(ptr noundef %48, ptr noundef %49, ptr noundef %11)
  %51 = icmp ne i32 %50, 0
  br i1 %51, label %52, label %63

52:                                               ; preds = %47
  %53 = load i32, ptr %12, align 4, !tbaa !28
  %54 = icmp ne i32 %53, 0
  br i1 %54, label %55, label %58

55:                                               ; preds = %52
  %56 = load i64, ptr %11, align 8, !tbaa !33
  %57 = trunc i64 %56 to i32
  store i32 %57, ptr %10, align 4, !tbaa !28
  br label %62

58:                                               ; preds = %52
  %59 = load i64, ptr %11, align 8, !tbaa !33
  %60 = trunc i64 %59 to i32
  %61 = sub nsw i32 2147483647, %60
  store i32 %61, ptr %10, align 4, !tbaa !28
  br label %62

62:                                               ; preds = %58, %55
  br label %63

63:                                               ; preds = %62, %47
  %64 = load ptr, ptr %13, align 8, !tbaa !36
  call void @OSSL_ENCODER_CTX_free(ptr noundef %64)
  store i32 0, ptr %14, align 4
  br label %65

65:                                               ; preds = %63, %46
  call void @llvm.lifetime.end.p0(i64 8, ptr %13) #3
  call void @llvm.lifetime.end.p0(i64 4, ptr %12) #3
  call void @llvm.lifetime.end.p0(i64 8, ptr %11) #3
  %66 = load i32, ptr %14, align 4
  switch i32 %66, label %77 [
    i32 0, label %67
  ]

67:                                               ; preds = %65
  br label %68

68:                                               ; preds = %67
  %69 = load ptr, ptr %8, align 8, !tbaa !29
  %70 = getelementptr inbounds nuw %struct.type_and_structure_st, ptr %69, i32 1
  store ptr %70, ptr %8, align 8, !tbaa !29
  br label %15, !llvm.loop !38

71:                                               ; preds = %23
  %72 = load i32, ptr %10, align 4, !tbaa !28
  %73 = icmp eq i32 %72, -1
  br i1 %73, label %74, label %75

74:                                               ; preds = %71
  call void @ERR_new()
  call void @ERR_set_debug(ptr noundef @.str.2, i32 noundef 69, ptr noundef @__func__.i2d_provided)
  call void (i32, i32, ptr, ...) @ERR_set_error(i32 noundef 13, i32 noundef 196, ptr noundef null)
  br label %75

75:                                               ; preds = %74, %71
  %76 = load i32, ptr %10, align 4, !tbaa !28
  store i32 %76, ptr %5, align 4
  store i32 1, ptr %14, align 4
  br label %77

77:                                               ; preds = %75, %65
  call void @llvm.lifetime.end.p0(i64 4, ptr %10) #3
  %78 = load i32, ptr %5, align 4
  ret i32 %78
}